target datalayout = "e-m:e-p270:32:32-p271:32:32-p272:64:64-i64:64-i128:128-f80:128-n8:16:32:64-S128"
target triple = "x86_64-pc-linux-gnu"

%struct.FxuDouble = type { i32, i32, i32, i32, %struct.FxuListPair, ptr, ptr, ptr }
%struct.FxuListPair = type { ptr, ptr, i32 }
%struct.FxuPair = type { i32, i32, i32, ptr, ptr, ptr, i32, i32, ptr, ptr }

; Function Attrs: nounwind uwtable
define void @Fxu_ListDoubleAddPairMiddle(ptr noundef %0, ptr noundef %1, ptr noundef %2) #0 {
  %4 = alloca ptr, align 8
  %5 = alloca ptr, align 8
  %6 = alloca ptr, align 8
  %7 = alloca ptr, align 8
  store ptr %0, ptr %4, align 8, !tbaa !45
  store ptr %1, ptr %5, align 8, !tbaa !80
  store ptr %2, ptr %6, align 8, !tbaa !80
  call void @llvm.lifetime.start.p0(i64 8, ptr %7) #3
  %8 = load ptr, ptr %4, align 8, !tbaa !45
  %9 = getelementptr inbounds nuw %struct.FxuDouble, ptr %8, i32 0, i32 4
  store ptr %9, ptr %7, align 8, !tbaa !81
  %10 = load ptr, ptr %5, align 8, !tbaa !80
  %11 = load ptr, ptr %6, align 8, !tbaa !80
  %12 = getelementptr inbounds nuw %struct.FxuPair, ptr %11, i32 0, i32 8
  store ptr %10, ptr %12, align 8, !tbaa !85
  %13 = load ptr, ptr %5, align 8, !tbaa !80
  %14 = getelementptr inbounds nuw %struct.FxuPair, ptr %13, i32 0, i32 9
  %15 = load ptr, ptr %14, align 8, !tbaa !87
  %16 = load ptr, ptr %6, align 8, !tbaa !80
  %17 = getelementptr inbounds nuw %struct.FxuPair, ptr %16, i32 0, i32 9
  store ptr %15, ptr %17, align 8, !tbaa !87
  %18 = load ptr, ptr %6, align 8, !tbaa !80
  %19 = load ptr, ptr %6, align 8, !tbaa !80
  %20 = getelementptr inbounds nuw %struct.FxuPair, ptr %19, i32 0, i32 8
  %21 = load ptr, ptr %20, align 8, !tbaa !85
  %22 = getelementptr inbounds nuw %struct.FxuPair, ptr %21, i32 0, i32 9
  store ptr %18, ptr %22, align 8, !tbaa !87
  %23 = load ptr, ptr %6, align 8, !tbaa !80
  %24 = load ptr, ptr %6, align 8, !tbaa !80
  %25 = getelementptr inbounds nuw %struct.FxuPair, ptr %24, i32 0, i32 9
  %26 = load ptr, ptr %25, align 8, !tbaa !87
  %27 = getelementptr inbounds nuw %struct.FxuPair, ptr %26, i32 0, i32 8
  store ptr %23, ptr %27, align 8, !tbaa !85
  %28 = load ptr, ptr %7, align 8, !tbaa !81
  %29 = getelementptr inbounds nuw %struct.FxuListPair, ptr %28, i32 0, i32 2
  %30 = load i32, ptr %29, align 8, !tbaa !88
  %31 = add nsw i32 %30, 1
  store i32 %31, ptr %29, align 8, !tbaa !88
  call void @llvm.lifetime.end.p0(i64 8, ptr %7) #3
  ret void
}