; Function Attrs: mustprogress nofree norecurse nosync nounwind willreturn memory(write, argmem: readwrite, inaccessiblemem: none) uwtable
define void @Fxu_ListDoubleAddPairMiddle(ptr noundef captures(none) %0, ptr noundef %1, ptr noundef initializes((48, 64)) %2) local_unnamed_addr #0 {
  %4 = getelementptr inbounds nuw i8, ptr %2, i64 48
  store ptr %1, ptr %4, align 8, !tbaa !68
  %5 = getelementptr inbounds nuw i8, ptr %1, i64 56
  %6 = load ptr, ptr %5, align 8, !tbaa !66
  %7 = getelementptr inbounds nuw i8, ptr %2, i64 56
  store ptr %6, ptr %7, align 8, !tbaa !66
  store ptr %2, ptr %5, align 8, !tbaa !66
  %8 = load ptr, ptr %7, align 8, !tbaa !66
  %9 = getelementptr inbounds nuw i8, ptr %8, i64 48
  store ptr %2, ptr %9, align 8, !tbaa !68
  %10 = getelementptr inbounds nuw i8, ptr %0, i64 32
  %11 = load i32, ptr %10, align 8, !tbaa !69
  %12 = add nsw i32 %11, 1
  store i32 %12, ptr %10, align 8, !tbaa !69
  ret void
}